target datalayout = "e-m:e-p270:32:32-p271:32:32-p272:64:64-i64:64-i128:128-f80:128-n8:16:32:64-S128"
target triple = "x86_64-pc-linux-gnu"

%struct.pg_enc2name = type { ptr, i32 }
%struct.pg_wchar_tbl = type { ptr, ptr, ptr, ptr, ptr, ptr, i32 }

@DatabaseEncoding = internal global ptr @pg_enc2name_tbl, align 8
@pg_wchar_table = external constant [0 x %struct.pg_wchar_tbl], align 8

; Function Attrs: nounwind uwtable
define dso_local i32 @pg_mb2wchar_with_len(ptr noundef %0, ptr noundef %1, i32 noundef %2) #1 {
  %4 = alloca ptr, align 8
  %5 = alloca ptr, align 8
  %6 = alloca i32, align 4
  store ptr %0, ptr %4, align 8
  store ptr %1, ptr %5, align 8
  store i32 %2, ptr %6, align 4
  %7 = load ptr, ptr @DatabaseEncoding, align 8
  %8 = getelementptr inbounds nuw %struct.pg_enc2name, ptr %7, i32 0, i32 1
  %9 = load i32, ptr %8, align 8
  %10 = zext i32 %9 to i64
  %11 = getelementptr inbounds nuw [0 x %struct.pg_wchar_tbl], ptr @pg_wchar_table, i64 0, i64 %10
  %12 = getelementptr inbounds nuw %struct.pg_wchar_tbl, ptr %11, i32 0, i32 0
  %13 = load ptr, ptr %12, align 8
  %14 = load ptr, ptr %4, align 8
  %15 = load ptr, ptr %5, align 8
  %16 = load i32, ptr %6, align 4
  %17 = call i32 %13(ptr noundef %14, ptr noundef %15, i32 noundef %16)
  ret i32 %17
}