; Function Attrs: nounwind uwtable
define dso_local i32 @pg_mb2wchar_with_len(ptr noundef %0, ptr noundef %1, i32 noundef %2) local_unnamed_addr #0 {
  %4 = load ptr, ptr @DatabaseEncoding, align 8
  %5 = getelementptr inbounds nuw i8, ptr %4, i64 8
  %6 = load i32, ptr %5, align 8
  %7 = zext i32 %6 to i64
  %8 = getelementptr inbounds nuw [0 x %struct.pg_wchar_tbl], ptr @pg_wchar_table, i64 0, i64 %7
  %9 = load ptr, ptr %8, align 8
  %10 = tail call i32 %9(ptr noundef %0, ptr noundef %1, i32 noundef %2) #13
  ret i32 %10
}